; Function Attrs: mustprogress uwtable
define hidden noundef i32 @_ZN3smt15check_at_labels19count_at_labels_negEP4expr(ptr noundef nonnull align 8 captures(none) dereferenceable(9) %0, ptr noundef %1) local_unnamed_addr #4 align 2 {
  %3 = getelementptr inbounds nuw i8, ptr %1, i64 4
  %4 = load i32, ptr %3, align 4
  %5 = and i32 %4, 65535
  %6 = icmp eq i32 %5, 0
  br i1 %6, label %7, label %74

7:                                                ; preds = %2
  %8 = getelementptr inbounds nuw i8, ptr %1, i64 24
  %9 = load i32, ptr %8, align 8, !tbaa !10
  %10 = tail call noundef i32 @_ZN3smt15check_at_labels19count_at_labels_litEP4exprb(ptr noundef nonnull align 8 dereferenceable(9) %0, ptr noundef nonnull %1, i1 noundef zeroext false)
  %11 = load i32, ptr %3, align 4
  %12 = and i32 %11, 65535
  %13 = icmp eq i32 %12, 0
  br i1 %13, label %14, label %_ZNK11ast_manager6is_andEPK4expr.exit.thread

14:                                               ; preds = %7
  %15 = getelementptr inbounds nuw i8, ptr %1, i64 16
  %16 = load ptr, ptr %15, align 8, !tbaa !17
  %17 = getelementptr inbounds nuw i8, ptr %16, i64 24
  %18 = load ptr, ptr %17, align 8, !tbaa !18
  %.not.i.i.i.i = icmp eq ptr %18, null
  br i1 %.not.i.i.i.i, label %_ZNK11ast_manager6is_andEPK4expr.exit.thread, label %_ZNK11ast_manager5is_orEPK4expr.exit

_ZNK11ast_manager5is_orEPK4expr.exit:             ; preds = %14
  %19 = load i32, ptr %18, align 8, !tbaa !23
  %20 = icmp eq i32 %19, 0
  %21 = getelementptr inbounds nuw i8, ptr %18, i64 4
  %22 = load i32, ptr %21, align 4
  %23 = icmp eq i32 %22, 6
  %24 = select i1 %20, i1 %23, i1 false
  br i1 %24, label %.preheader41, label %_ZNK11ast_manager6is_notEPK4expr.exit

.preheader41:                                     ; preds = %_ZNK11ast_manager5is_orEPK4expr.exit
  %.not = icmp eq i32 %9, 0
  br i1 %.not, label %_ZNK11ast_manager6is_andEPK4expr.exit.thread, label %.lr.ph

.lr.ph:                                           ; preds = %.preheader41
  %25 = getelementptr inbounds nuw i8, ptr %1, i64 32
  %wide.trip.count = zext i32 %9 to i64
  br label %26

26:                                               ; preds = %.lr.ph, %26
  %indvars.iv = phi i64 [ 0, %.lr.ph ], [ %indvars.iv.next, %26 ]
  %.03543 = phi i32 [ %10, %.lr.ph ], [ %30, %26 ]
  %27 = getelementptr inbounds nuw [0 x ptr], ptr %25, i64 0, i64 %indvars.iv
  %28 = load ptr, ptr %27, align 8, !tbaa !27
  %29 = tail call noundef i32 @_ZN3smt15check_at_labels19count_at_labels_negEP4expr(ptr noundef nonnull align 8 dereferenceable(9) %0, ptr noundef %28)
  %30 = add i32 %29, %.03543
  %indvars.iv.next = add nuw nsw i64 %indvars.iv, 1
  %exitcond.not = icmp eq i64 %indvars.iv.next, %wide.trip.count
  br i1 %exitcond.not, label %_ZNK11ast_manager6is_andEPK4expr.exit.thread, label %26, !llvm.loop !42

_ZNK11ast_manager6is_notEPK4expr.exit:            ; preds = %_ZNK11ast_manager5is_orEPK4expr.exit
  %31 = load i32, ptr %18, align 8, !tbaa !23
  %32 = icmp eq i32 %31, 0
  %33 = getelementptr inbounds nuw i8, ptr %18, i64 4
  %34 = load i32, ptr %33, align 4
  %35 = icmp eq i32 %34, 8
  %36 = select i1 %32, i1 %35, i1 false
  br i1 %36, label %37, label %_ZNK11ast_manager10is_impliesEPK4expr.exit

37:                                               ; preds = %_ZNK11ast_manager6is_notEPK4expr.exit
  %38 = getelementptr inbounds nuw i8, ptr %1, i64 32
  %39 = load ptr, ptr %38, align 8, !tbaa !27
  %40 = tail call noundef i32 @_ZN3smt15check_at_labels19count_at_labels_posEP4expr(ptr noundef nonnull align 8 dereferenceable(9) %0, ptr noundef %39)
  br label %_ZNK11ast_manager6is_andEPK4expr.exit.thread

_ZNK11ast_manager10is_impliesEPK4expr.exit:       ; preds = %_ZNK11ast_manager6is_notEPK4expr.exit
  %41 = load i32, ptr %18, align 8, !tbaa !23
  %42 = icmp eq i32 %41, 0
  %43 = getelementptr inbounds nuw i8, ptr %18, i64 4
  %44 = load i32, ptr %43, align 4
  %45 = icmp eq i32 %44, 9
  %46 = select i1 %42, i1 %45, i1 false
  br i1 %46, label %47, label %_ZNK11ast_manager6is_andEPK4expr.exit

47:                                               ; preds = %_ZNK11ast_manager10is_impliesEPK4expr.exit
  %48 = getelementptr inbounds nuw i8, ptr %1, i64 32
  %49 = load ptr, ptr %48, align 8, !tbaa !27
  %50 = tail call noundef i32 @_ZN3smt15check_at_labels19count_at_labels_posEP4expr(ptr noundef nonnull align 8 dereferenceable(9) %0, ptr noundef %49)
  %51 = add i32 %50, %10
  %52 = getelementptr inbounds nuw i8, ptr %1, i64 40
  %53 = load ptr, ptr %52, align 8, !tbaa !27
  %54 = tail call noundef i32 @_ZN3smt15check_at_labels19count_at_labels_negEP4expr(ptr noundef nonnull align 8 dereferenceable(9) %0, ptr noundef %53)
  %55 = add i32 %51, %54
  br label %_ZNK11ast_manager6is_andEPK4expr.exit.thread

_ZNK11ast_manager6is_andEPK4expr.exit:            ; preds = %_ZNK11ast_manager10is_impliesEPK4expr.exit
  %56 = load i32, ptr %18, align 8, !tbaa !23
  %57 = icmp eq i32 %56, 0
  %58 = getelementptr inbounds nuw i8, ptr %18, i64 4
  %59 = load i32, ptr %58, align 4
  %60 = icmp eq i32 %59, 5
  %61 = select i1 %57, i1 %60, i1 false
  %62 = icmp ne i32 %9, 0
  %or.cond = select i1 %61, i1 %62, i1 false
  br i1 %or.cond, label %.lr.ph47, label %_ZNK11ast_manager6is_andEPK4expr.exit.thread

.lr.ph47:                                         ; preds = %_ZNK11ast_manager6is_andEPK4expr.exit
  %63 = getelementptr inbounds nuw i8, ptr %1, i64 32
  %wide.trip.count54 = zext i32 %9 to i64
  br label %64

64:                                               ; preds = %.lr.ph47, %64
  %indvars.iv51 = phi i64 [ 0, %.lr.ph47 ], [ %indvars.iv.next52, %64 ]
  %.245 = phi i32 [ %10, %.lr.ph47 ], [ %.sroa.speculated, %64 ]
  %65 = getelementptr inbounds nuw [0 x ptr], ptr %63, i64 0, i64 %indvars.iv51
  %66 = load ptr, ptr %65, align 8, !tbaa !27
  %67 = tail call noundef i32 @_ZN3smt15check_at_labels19count_at_labels_negEP4expr(ptr noundef nonnull align 8 dereferenceable(9) %0, ptr noundef %66)
  %.sroa.speculated = tail call i32 @llvm.umax.i32(i32 %.245, i32 %67)
  %indvars.iv.next52 = add nuw nsw i64 %indvars.iv51, 1
  %exitcond55.not = icmp eq i64 %indvars.iv.next52, %wide.trip.count54
  br i1 %exitcond55.not, label %_ZNK11ast_manager6is_andEPK4expr.exit.thread, label %64, !llvm.loop !43

_ZNK11ast_manager6is_andEPK4expr.exit.thread:     ; preds = %64, %26, %14, %.preheader41, %7, %37, %_ZNK11ast_manager6is_andEPK4expr.exit, %47
  %.1 = phi i32 [ %40, %37 ], [ %55, %47 ], [ %10, %_ZNK11ast_manager6is_andEPK4expr.exit ], [ %10, %7 ], [ %10, %.preheader41 ], [ %10, %14 ], [ %30, %26 ], [ %.sroa.speculated, %64 ]
  %68 = icmp ugt i32 %.1, 1
  br i1 %68, label %69, label %74

69:                                               ; preds = %_ZNK11ast_manager6is_andEPK4expr.exit.thread
  %70 = getelementptr inbounds nuw i8, ptr %0, i64 8
  %71 = load i8, ptr %70, align 8, !tbaa !3, !range !32, !noundef !33
  %72 = trunc nuw i8 %71 to i1
  br i1 %72, label %73, label %74

73:                                               ; preds = %69
  store i8 0, ptr %70, align 8, !tbaa !3
  br label %74

74:                                               ; preds = %_ZNK11ast_manager6is_andEPK4expr.exit.thread, %69, %73, %2
  %.023 = phi i32 [ 0, %2 ], [ %.1, %73 ], [ %.1, %69 ], [ %.1, %_ZNK11ast_manager6is_andEPK4expr.exit.thread ]
  ret i32 %.023
}